target datalayout = "e-m:e-p270:32:32-p271:32:32-p272:64:64-i64:64-i128:128-f80:128-n8:16:32:64-S128"
target triple = "x86_64-pc-linux-gnu"

%struct.lean_object = type { i32, i32 }

@l_Lean_JsonRpc_instToJsonErrorCode___closed__2 = internal global ptr null, align 8
@l_Lean_JsonRpc_instToJsonErrorCode___closed__4 = internal global ptr null, align 8
@l_Lean_JsonRpc_instToJsonErrorCode___closed__6 = internal global ptr null, align 8
@l_Lean_JsonRpc_instToJsonErrorCode___closed__8 = internal global ptr null, align 8
@l_Lean_JsonRpc_instToJsonErrorCode___closed__10 = internal global ptr null, align 8
@l_Lean_JsonRpc_instToJsonErrorCode___closed__12 = internal global ptr null, align 8
@l_Lean_JsonRpc_instToJsonErrorCode___closed__14 = internal global ptr null, align 8
@l_Lean_JsonRpc_instToJsonErrorCode___closed__16 = internal global ptr null, align 8
@l_Lean_JsonRpc_instToJsonErrorCode___closed__18 = internal global ptr null, align 8
@l_Lean_JsonRpc_instToJsonErrorCode___closed__20 = internal global ptr null, align 8
@l_Lean_JsonRpc_instToJsonErrorCode___closed__22 = internal global ptr null, align 8
@l_Lean_JsonRpc_instToJsonErrorCode___closed__24 = internal global ptr null, align 8

; Function Attrs: alwaysinline nounwind uwtable
define internal void @lean_dec_ref(ptr noundef %0) #1 {
  %2 = alloca ptr, align 8
  store ptr %0, ptr %2, align 8, !tbaa !4
  %3 = load ptr, ptr %2, align 8, !tbaa !4
  %4 = getelementptr inbounds nuw %struct.lean_object, ptr %3, i32 0, i32 0
  %5 = load i32, ptr %4, align 4, !tbaa !15
  %6 = icmp sgt i32 %5, 1
  %7 = zext i1 %6 to i32
  %8 = sext i32 %7 to i64
  %9 = call i64 @llvm.expect.i64(i64 %8, i64 1)
  %10 = icmp ne i64 %9, 0
  br i1 %10, label %11, label %16

11:                                               ; preds = %1
  %12 = load ptr, ptr %2, align 8, !tbaa !4
  %13 = getelementptr inbounds nuw %struct.lean_object, ptr %12, i32 0, i32 0
  %14 = load i32, ptr %13, align 4, !tbaa !15
  %15 = add i32 %14, -1
  store i32 %15, ptr %13, align 4, !tbaa !15
  br label %24

16:                                               ; preds = %1
  %17 = load ptr, ptr %2, align 8, !tbaa !4
  %18 = getelementptr inbounds nuw %struct.lean_object, ptr %17, i32 0, i32 0
  %19 = load i32, ptr %18, align 4, !tbaa !15
  %20 = icmp ne i32 %19, 0
  br i1 %20, label %21, label %23

21:                                               ; preds = %16
  %22 = load ptr, ptr %2, align 8, !tbaa !4
  call void @lean_dec_ref_cold(ptr noundef %22)
  br label %23

23:                                               ; preds = %21, %16
  br label %24

24:                                               ; preds = %23, %11
  ret void
}

; Function Attrs: alwaysinline nounwind uwtable
define internal zeroext i1 @lean_is_scalar(ptr noundef %0) #1 {
  %2 = alloca ptr, align 8
  store ptr %0, ptr %2, align 8, !tbaa !4
  %3 = load ptr, ptr %2, align 8, !tbaa !4
  %4 = ptrtoint ptr %3 to i64
  %5 = and i64 %4, 1
  %6 = icmp eq i64 %5, 1
  ret i1 %6
}

; Function Attrs: nounwind uwtable
define ptr @l_Lean_JsonRpc_instToJsonErrorCode(i8 noundef zeroext %0) #2 {
  %2 = alloca ptr, align 8
  %3 = alloca i8, align 1
  %4 = alloca ptr, align 8
  %5 = alloca ptr, align 8
  %6 = alloca ptr, align 8
  %7 = alloca ptr, align 8
  %8 = alloca ptr, align 8
  %9 = alloca ptr, align 8
  %10 = alloca ptr, align 8
  %11 = alloca ptr, align 8
  %12 = alloca ptr, align 8
  %13 = alloca ptr, align 8
  %14 = alloca ptr, align 8
  %15 = alloca ptr, align 8
  store i8 %0, ptr %3, align 1, !tbaa !10
  br label %16

16:                                               ; preds = %1
  %17 = load i8, ptr %3, align 1, !tbaa !10
  %18 = zext i8 %17 to i32
  switch i32 %18, label %52 [
    i32 0, label %19
    i32 1, label %22
    i32 2, label %25
    i32 3, label %28
    i32 4, label %31
    i32 5, label %34
    i32 6, label %37
    i32 7, label %40
    i32 8, label %43
    i32 9, label %46
    i32 10, label %49
  ]

19:                                               ; preds = %16
  call void @llvm.lifetime.start.p0(i64 8, ptr %4) #7
  %20 = load ptr, ptr @l_Lean_JsonRpc_instToJsonErrorCode___closed__2, align 8, !tbaa !4
  store ptr %20, ptr %4, align 8, !tbaa !4
  %21 = load ptr, ptr %4, align 8, !tbaa !4
  store ptr %21, ptr %2, align 8
  call void @llvm.lifetime.end.p0(i64 8, ptr %4) #7
  br label %55

22:                                               ; preds = %16
  call void @llvm.lifetime.start.p0(i64 8, ptr %5) #7
  %23 = load ptr, ptr @l_Lean_JsonRpc_instToJsonErrorCode___closed__4, align 8, !tbaa !4
  store ptr %23, ptr %5, align 8, !tbaa !4
  %24 = load ptr, ptr %5, align 8, !tbaa !4
  store ptr %24, ptr %2, align 8
  call void @llvm.lifetime.end.p0(i64 8, ptr %5) #7
  br label %55

25:                                               ; preds = %16
  call void @llvm.lifetime.start.p0(i64 8, ptr %6) #7
  %26 = load ptr, ptr @l_Lean_JsonRpc_instToJsonErrorCode___closed__6, align 8, !tbaa !4
  store ptr %26, ptr %6, align 8, !tbaa !4
  %27 = load ptr, ptr %6, align 8, !tbaa !4
  store ptr %27, ptr %2, align 8
  call void @llvm.lifetime.end.p0(i64 8, ptr %6) #7
  br label %55

28:                                               ; preds = %16
  call void @llvm.lifetime.start.p0(i64 8, ptr %7) #7
  %29 = load ptr, ptr @l_Lean_JsonRpc_instToJsonErrorCode___closed__8, align 8, !tbaa !4
  store ptr %29, ptr %7, align 8, !tbaa !4
  %30 = load ptr, ptr %7, align 8, !tbaa !4
  store ptr %30, ptr %2, align 8
  call void @llvm.lifetime.end.p0(i64 8, ptr %7) #7
  br label %55

31:                                               ; preds = %16
  call void @llvm.lifetime.start.p0(i64 8, ptr %8) #7
  %32 = load ptr, ptr @l_Lean_JsonRpc_instToJsonErrorCode___closed__10, align 8, !tbaa !4
  store ptr %32, ptr %8, align 8, !tbaa !4
  %33 = load ptr, ptr %8, align 8, !tbaa !4
  store ptr %33, ptr %2, align 8
  call void @llvm.lifetime.end.p0(i64 8, ptr %8) #7
  br label %55

34:                                               ; preds = %16
  call void @llvm.lifetime.start.p0(i64 8, ptr %9) #7
  %35 = load ptr, ptr @l_Lean_JsonRpc_instToJsonErrorCode___closed__12, align 8, !tbaa !4
  store ptr %35, ptr %9, align 8, !tbaa !4
  %36 = load ptr, ptr %9, align 8, !tbaa !4
  store ptr %36, ptr %2, align 8
  call void @llvm.lifetime.end.p0(i64 8, ptr %9) #7
  br label %55

37:                                               ; preds = %16
  call void @llvm.lifetime.start.p0(i64 8, ptr %10) #7
  %38 = load ptr, ptr @l_Lean_JsonRpc_instToJsonErrorCode___closed__14, align 8, !tbaa !4
  store ptr %38, ptr %10, align 8, !tbaa !4
  %39 = load ptr, ptr %10, align 8, !tbaa !4
  store ptr %39, ptr %2, align 8
  call void @llvm.lifetime.end.p0(i64 8, ptr %10) #7
  br label %55

40:                                               ; preds = %16
  call void @llvm.lifetime.start.p0(i64 8, ptr %11) #7
  %41 = load ptr, ptr @l_Lean_JsonRpc_instToJsonErrorCode___closed__16, align 8, !tbaa !4
  store ptr %41, ptr %11, align 8, !tbaa !4
  %42 = load ptr, ptr %11, align 8, !tbaa !4
  store ptr %42, ptr %2, align 8
  call void @llvm.lifetime.end.p0(i64 8, ptr %11) #7
  br label %55

43:                                               ; preds = %16
  call void @llvm.lifetime.start.p0(i64 8, ptr %12) #7
  %44 = load ptr, ptr @l_Lean_JsonRpc_instToJsonErrorCode___closed__18, align 8, !tbaa !4
  store ptr %44, ptr %12, align 8, !tbaa !4
  %45 = load ptr, ptr %12, align 8, !tbaa !4
  store ptr %45, ptr %2, align 8
  call void @llvm.lifetime.end.p0(i64 8, ptr %12) #7
  br label %55

46:                                               ; preds = %16
  call void @llvm.lifetime.start.p0(i64 8, ptr %13) #7
  %47 = load ptr, ptr @l_Lean_JsonRpc_instToJsonErrorCode___closed__20, align 8, !tbaa !4
  store ptr %47, ptr %13, align 8, !tbaa !4
  %48 = load ptr, ptr %13, align 8, !tbaa !4
  store ptr %48, ptr %2, align 8
  call void @llvm.lifetime.end.p0(i64 8, ptr %13) #7
  br label %55

49:                                               ; preds = %16
  call void @llvm.lifetime.start.p0(i64 8, ptr %14) #7
  %50 = load ptr, ptr @l_Lean_JsonRpc_instToJsonErrorCode___closed__22, align 8, !tbaa !4
  store ptr %50, ptr %14, align 8, !tbaa !4
  %51 = load ptr, ptr %14, align 8, !tbaa !4
  store ptr %51, ptr %2, align 8
  call void @llvm.lifetime.end.p0(i64 8, ptr %14) #7
  br label %55

52:                                               ; preds = %16
  call void @llvm.lifetime.start.p0(i64 8, ptr %15) #7
  %53 = load ptr, ptr @l_Lean_JsonRpc_instToJsonErrorCode___closed__24, align 8, !tbaa !4
  store ptr %53, ptr %15, align 8, !tbaa !4
  %54 = load ptr, ptr %15, align 8, !tbaa !4
  store ptr %54, ptr %2, align 8
  call void @llvm.lifetime.end.p0(i64 8, ptr %15) #7
  br label %55

55:                                               ; preds = %52, %49, %46, %43, %40, %37, %34, %31, %28, %25, %22, %19
  %56 = load ptr, ptr %2, align 8
  ret ptr %56
}

; Function Attrs: alwaysinline nounwind uwtable
define internal void @lean_dec(ptr noundef %0) #1 {
  %2 = alloca ptr, align 8
  store ptr %0, ptr %2, align 8, !tbaa !4
  %3 = load ptr, ptr %2, align 8, !tbaa !4
  %4 = call zeroext i1 @lean_is_scalar(ptr noundef %3)
  br i1 %4, label %7, label %5

5:                                                ; preds = %1
  %6 = load ptr, ptr %2, align 8, !tbaa !4
  call void @lean_dec_ref(ptr noundef %6)
  br label %7

7:                                                ; preds = %5, %1
  ret void
}

; Function Attrs: inlinehint nounwind uwtable
define internal i64 @lean_unbox(ptr noundef %0) #0 {
  %2 = alloca ptr, align 8
  store ptr %0, ptr %2, align 8, !tbaa !4
  %3 = load ptr, ptr %2, align 8, !tbaa !4
  %4 = ptrtoint ptr %3 to i64
  %5 = lshr i64 %4, 1
  ret i64 %5
}

; Function Attrs: nounwind uwtable
define ptr @l_Lean_JsonRpc_instToJsonErrorCode___boxed(ptr noundef %0) #2 {
  %2 = alloca ptr, align 8
  %3 = alloca i8, align 1
  %4 = alloca ptr, align 8
  store ptr %0, ptr %2, align 8, !tbaa !4
  br label %5

5:                                                ; preds = %1
  call void @llvm.lifetime.start.p0(i64 1, ptr %3) #7
  call void @llvm.lifetime.start.p0(i64 8, ptr %4) #7
  %6 = load ptr, ptr %2, align 8, !tbaa !4
  %7 = call i64 @lean_unbox(ptr noundef %6)
  %8 = trunc i64 %7 to i8
  store i8 %8, ptr %3, align 1, !tbaa !10
  %9 = load ptr, ptr %2, align 8, !tbaa !4
  call void @lean_dec(ptr noundef %9)
  %10 = load i8, ptr %3, align 1, !tbaa !10
  %11 = call ptr @l_Lean_JsonRpc_instToJsonErrorCode(i8 noundef zeroext %10)
  store ptr %11, ptr %4, align 8, !tbaa !4
  %12 = load ptr, ptr %4, align 8, !tbaa !4
  call void @llvm.lifetime.end.p0(i64 8, ptr %4) #7
  call void @llvm.lifetime.end.p0(i64 1, ptr %3) #7
  ret ptr %12
}